; ModuleID = '19/1255.c'
source_filename = "19/1255.c"
target datalayout = "e-m:e-p270:32:32-p271:32:32-p272:64:64-i64:64-f80:128-n8:16:32:64-S128"
target triple = "x86_64-pc-linux-gnu"

@.str = private unnamed_addr constant [4 x i8] c"%s \00", align 1
@.str.1 = private unnamed_addr constant [3 x i8] c"%s\00", align 1

; Function Attrs: noinline nounwind uwtable
define dso_local void @main() #0 {
  %1 = alloca i32, align 4
  %2 = alloca i8*, align 8
  %3 = alloca i8*, align 8
  %4 = alloca i8*, align 8
  %5 = alloca i8*, align 8
  store i32 0, i32* %1, align 4
  %6 = call noalias i8* @malloc(i64 200) #4
  store i8* %6, i8** %2, align 8
  %7 = call noalias i8* @malloc(i64 100) #4
  store i8* %7, i8** %3, align 8
  %8 = call noalias i8* @malloc(i64 100) #4
  store i8* %8, i8** %4, align 8
  %9 = load i8*, i8** %2, align 8
  %10 = call i32 (i8*, ...) bitcast (i32 (...)* @gets to i32 (i8*, ...)*)(i8* %9)
  %11 = load i8*, i8** %3, align 8
  %12 = call i32 (i8*, ...) bitcast (i32 (...)* @gets to i32 (i8*, ...)*)(i8* %11)
  %13 = load i8*, i8** %4, align 8
  %14 = call i32 (i8*, ...) bitcast (i32 (...)* @gets to i32 (i8*, ...)*)(i8* %13)
  %15 = load i8*, i8** %2, align 8
  store i8* %15, i8** %5, align 8
  br label %16

16:                                               ; preds = %45, %0
  %17 = load i8*, i8** %2, align 8
  %18 = load i8, i8* %17, align 1
  %19 = sext i8 %18 to i32
  %20 = icmp ne i32 %19, 0
  br i1 %20, label %21, label %46

21:                                               ; preds = %16
  %22 = load i8*, i8** %2, align 8
  %23 = load i8, i8* %22, align 1
  %24 = sext i8 %23 to i32
  %25 = icmp ne i32 %24, 32
  br i1 %25, label %26, label %29

26:                                               ; preds = %21
  %27 = load i8*, i8** %2, align 8
  %28 = getelementptr inbounds i8, i8* %27, i64 1
  store i8* %28, i8** %2, align 8
  br label %45

29:                                               ; preds = %21
  %30 = load i8*, i8** %2, align 8
  store i8 0, i8* %30, align 1
  %31 = load i8*, i8** %2, align 8
  %32 = getelementptr inbounds i8, i8* %31, i64 1
  store i8* %32, i8** %2, align 8
  %33 = load i8*, i8** %5, align 8
  %34 = load i8*, i8** %3, align 8
  %35 = call i32 @strcmp(i8* %33, i8* %34) #5
  %36 = icmp eq i32 %35, 0
  br i1 %36, label %37, label %40

37:                                               ; preds = %29
  %38 = load i8*, i8** %4, align 8
  %39 = call i32 (i8*, ...) @printf(i8* getelementptr inbounds ([4 x i8], [4 x i8]* @.str, i64 0, i64 0), i8* %38)
  br label %43

40:                                               ; preds = %29
  %41 = load i8*, i8** %5, align 8
  %42 = call i32 (i8*, ...) @printf(i8* getelementptr inbounds ([4 x i8], [4 x i8]* @.str, i64 0, i64 0), i8* %41)
  br label %43

43:                                               ; preds = %40, %37
  %44 = load i8*, i8** %2, align 8
  store i8* %44, i8** %5, align 8
  br label %45

45:                                               ; preds = %43, %26
  br label %16

46:                                               ; preds = %16
  br label %47

47:                                               ; preds = %65, %46
  %48 = load i8*, i8** %5, align 8
  %49 = load i8*, i8** %3, align 8
  %50 = call i32 @strcmp(i8* %48, i8* %49) #5
  %51 = icmp eq i32 %50, 0
  br i1 %51, label %52, label %55

52:                                               ; preds = %47
  %53 = load i8*, i8** %4, align 8
  %54 = call i32 (i8*, ...) @printf(i8* getelementptr inbounds ([3 x i8], [3 x i8]* @.str.1, i64 0, i64 0), i8* %53)
  br label %58

55:                                               ; preds = %47
  %56 = load i8*, i8** %5, align 8
  %57 = call i32 (i8*, ...) @printf(i8* getelementptr inbounds ([3 x i8], [3 x i8]* @.str.1, i64 0, i64 0), i8* %56)
  br label %58

58:                                               ; preds = %55, %52
  store i32 1, i32* %1, align 4
  br label %59

59:                                               ; preds = %58
  %60 = load i8*, i8** %2, align 8
  %61 = load i8, i8* %60, align 1
  %62 = sext i8 %61 to i32
  %63 = icmp eq i32 %62, 0
  br i1 %63, label %64, label %65

64:                                               ; preds = %59
  store i32 0, i32* %1, align 4
  br label %65

65:                                               ; preds = %64, %59
  %66 = phi i1 [ false, %59 ], [ false, %64 ]
  br i1 %66, label %47, label %67

67:                                               ; preds = %65
  ret void
}

; Function Attrs: nounwind
declare dso_local noalias i8* @malloc(i64) #1

declare dso_local i32 @gets(...) #2

; Function Attrs: nounwind readonly
declare dso_local i32 @strcmp(i8*, i8*) #3

declare dso_local i32 @printf(i8*, ...) #2


!llvm.module.flags = !{!0}
!llvm.ident = !{!1}

!0 = !{i32 1, !"wchar_size", i32 4}
!1 = !{!"clang version 10.0.0-4ubuntu1 "}
